target datalayout = "e-m:e-p270:32:32-p271:32:32-p272:64:64-i64:64-i128:128-f80:128-n8:16:32:64-S128"
target triple = "x86_64-pc-linux-gnu"

%struct._lv_image_t = type { %struct._lv_obj_t, ptr, ptr, %struct.lv_point_t, i32, i32, i32, i32, i32, %struct.lv_point_t, i16 }
%struct._lv_obj_t = type { ptr, ptr, ptr, ptr, ptr, %struct.lv_area_t, i32, i16, i16 }
%struct.lv_area_t = type { i32, i32, i32, i32 }
%struct.lv_point_t = type { i32, i32 }

; Function Attrs: nounwind uwtable
define void @lv_image_set_antialias(ptr noundef %0, i1 noundef zeroext %1) #0 {
  %3 = alloca ptr, align 8
  %4 = alloca i8, align 1
  %5 = alloca ptr, align 8
  %6 = alloca i32, align 4
  store ptr %0, ptr %3, align 8, !tbaa !8
  %7 = zext i1 %1 to i8
  store i8 %7, ptr %4, align 1, !tbaa !60
  br label %8

8:                                                ; preds = %2
  %9 = load ptr, ptr %3, align 8, !tbaa !8
  %10 = icmp ne ptr %9, null
  br i1 %10, label %15, label %11

11:                                               ; preds = %8
  br label %12

12:                                               ; preds = %11
  br label %13

13:                                               ; preds = %12
  br label %14

14:                                               ; preds = %13, %14
  br label %14

15:                                               ; preds = %8
  br label %16

16:                                               ; preds = %15
  call void @llvm.lifetime.start.p0(i64 8, ptr %5) #5
  %17 = load ptr, ptr %3, align 8, !tbaa !8
  store ptr %17, ptr %5, align 8, !tbaa !10
  %18 = load i8, ptr %4, align 1, !tbaa !60, !range !61, !noundef !62
  %19 = trunc i8 %18 to i1
  %20 = zext i1 %19 to i32
  %21 = load ptr, ptr %5, align 8, !tbaa !10
  %22 = getelementptr inbounds nuw %struct._lv_image_t, ptr %21, i32 0, i32 10
  %23 = load i16, ptr %22, align 4
  %24 = lshr i16 %23, 7
  %25 = and i16 %24, 1
  %26 = zext i16 %25 to i32
  %27 = icmp eq i32 %20, %26
  br i1 %27, label %28, label %29

28:                                               ; preds = %16
  store i32 1, ptr %6, align 4
  br label %42

29:                                               ; preds = %16
  %30 = load i8, ptr %4, align 1, !tbaa !60, !range !61, !noundef !62
  %31 = trunc i8 %30 to i1
  %32 = zext i1 %31 to i32
  %33 = load ptr, ptr %5, align 8, !tbaa !10
  %34 = getelementptr inbounds nuw %struct._lv_image_t, ptr %33, i32 0, i32 10
  %35 = trunc i32 %32 to i16
  %36 = load i16, ptr %34, align 4
  %37 = and i16 %35, 1
  %38 = shl i16 %37, 7
  %39 = and i16 %36, -129
  %40 = or i16 %39, %38
  store i16 %40, ptr %34, align 4
  %41 = load ptr, ptr %3, align 8, !tbaa !8
  call void @lv_obj_invalidate(ptr noundef %41)
  store i32 0, ptr %6, align 4
  br label %42

42:                                               ; preds = %29, %28
  call void @llvm.lifetime.end.p0(i64 8, ptr %5) #5
  %43 = load i32, ptr %6, align 4
  switch i32 %43, label %45 [
    i32 0, label %44
    i32 1, label %44
  ]

44:                                               ; preds = %42, %42
  ret void

45:                                               ; preds = %42
  unreachable
}