; Function Attrs: nounwind uwtable
define void @lv_image_set_antialias(ptr noundef %0, i1 noundef zeroext %1) local_unnamed_addr #0 {
  %.not = icmp eq ptr %0, null
  br i1 %.not, label %.preheader, label %3

.preheader:                                       ; preds = %2, %.preheader
  br label %.preheader

3:                                                ; preds = %2
  %4 = getelementptr inbounds nuw i8, ptr %0, i64 116
  %5 = load i16, ptr %4, align 4
  %6 = and i16 %5, 128
  %7 = icmp eq i16 %6, 0
  %8 = xor i1 %1, %7
  br i1 %8, label %13, label %9

9:                                                ; preds = %3
  %10 = select i1 %1, i16 128, i16 0
  %11 = and i16 %5, -129
  %12 = or disjoint i16 %11, %10
  store i16 %12, ptr %4, align 4
  tail call void @lv_obj_invalidate(ptr noundef nonnull %0) #6
  br label %13

13:                                               ; preds = %3, %9
  ret void
}